; Function Attrs: mustprogress uwtable
define dso_local void @_ZN11btMultiBody11setJointPosEif(ptr nocapture noundef nonnull readonly align 8 dereferenceable(640) %this, i32 noundef %i, float noundef %q) local_unnamed_addr #2 align 2 {
entry:
  %m_data.i = getelementptr inbounds i8, ptr %this, i64 192
  %0 = load ptr, ptr %m_data.i, align 8
  %idxprom.i = sext i32 %i to i64
  %m_jointPos = getelementptr inbounds %struct.btMultibodyLink, ptr %0, i64 %idxprom.i, i32 19
  store float %q, ptr %m_jointPos, align 8
  %1 = load ptr, ptr %m_data.i, align 8
  %arrayidx.i4 = getelementptr inbounds %struct.btMultibodyLink, ptr %1, i64 %idxprom.i
  tail call void @_ZN15btMultibodyLink19updateCacheMultiDofEPf(ptr noundef nonnull align 8 dereferenceable(688) %arrayidx.i4, ptr noundef null)
  ret void
}